(lp0
(lp1
(lp2
(lp3
(lp4
I0
aI255
aI0
aa(lp5
I255
aI255
aI0
aa(lp6
I0
aI0
aI255
aaa(lp7
(lp8
I0
aI0
aI0
aa(lp9
I0
aI255
aI0
aa(lp10
I0
aI0
aI255
aaa(lp11
(lp12
I0
aI0
aI0
aa(lp13
I0
aI0
aI0
aa(lp14
I0
aI0
aI0
aaa(lp15
(lp16
I0
aI0
aI0
aa(lp17
I0
aI0
aI0
aa(lp18
I0
aI0
aI0
aaa(lp19
(lp20
I0
aI0
aI0
aa(lp21
I0
aI0
aI0
aa(lp22
I0
aI0
aI0
aaa(lp23
(lp24
I0
aI0
aI0
aa(lp25
I0
aI0
aI0
aa(lp26
I0
aI0
aI0
aaa(lp27
(lp28
I0
aI0
aI0
aa(lp29
I0
aI0
aI0
aa(lp30
I0
aI0
aI0
aaa(lp31
(lp32
I0
aI0
aI0
aa(lp33
I0
aI0
aI0
aa(lp34
I0
aI0
aI0
aaa(lp35
(lp36
I0
aI0
aI0
aa(lp37
I0
aI0
aI0
aa(lp38
I0
aI0
aI0
aaa(lp39
(lp40
I0
aI0
aI0
aa(lp41
I0
aI0
aI0
aa(lp42
I0
aI0
aI0
aaaa(lp43
(lp44
(lp45
(lp46
I0
aI0
aI0
aI0
aI0
aI0
aI0
aI0
aI0
aI0
aI0
aI0
aI3
aI3
aI3
aI3
aa(lp47
I0
aI0
aI0
aI0
aI0
aI0
aI0
aI0
aI0
aI0
aI2
aI2
aI2
aI2
aI2
aI3
aa(lp48
I0
aI0
aI0
aI0
aI0
aI0
aI0
aI0
aI1
aI1
aI1
aI1
aI1
aI1
aI2
aI3
aa(lp49
I0
aI0
aI0
aI0
aI0
aI0
aI0
aI0
aI3
aI3
aI3
aI3
aI3
aI1
aI2
aI3
aa(lp50
I0
aI0
aI0
aI0
aI0
aI0
aI0
aI0
aI0
aI2
aI2
aI2
aI3
aI1
aI2
aI0
aa(lp51
I0
aI0
aI0
aI0
aI0
aI0
aI0
aI0
aI0
aI0
aI1
aI2
aI3
aI1
aI2
aI0
aa(lp52
I0
aI0
aI0
aI0
aI0
aI0
aI0
aI0
aI0
aI0
aI0
aI2
aI3
aI1
aI0
aI0
aa(lp53
I0
aI0
aI0
aI0
aI0
aI0
aI0
aI0
aI0
aI0
aI0
aI0
aI3
aI1
aI0
aI0
aa(lp54
I0
aI0
aI0
aI0
aI0
aI0
aI0
aI0
aI0
aI0
aI0
aI0
aI0
aI0
aI0
aI0
aa(lp55
I0
aI0
aI0
aI0
aI0
aI0
aI0
aI0
aI0
aI0
aI0
aI0
aI0
aI0
aI0
aI0
aa(lp56
I0
aI0
aI0
aI0
aI0
aI0
aI0
aI0
aI0
aI0
aI0
aI0
aI0
aI0
aI0
aI0
aa(lp57
I0
aI0
aI0
aI0
aI0
aI0
aI0
aI0
aI0
aI0
aI0
aI0
aI0
aI0
aI0
aI0
aa(lp58
I0
aI0
aI0
aI0
aI0
aI0
aI0
aI0
aI0
aI0
aI0
aI0
aI0
aI0
aI0
aI0
aa(lp59
I0
aI0
aI0
aI0
aI0
aI0
aI0
aI0
aI0
aI0
aI0
aI0
aI0
aI0
aI0
aI0
aa(lp60
I0
aI0
aI0
aI0
aI0
aI0
aI0
aI0
aI0
aI0
aI0
aI0
aI0
aI0
aI0
aI0
aa(lp61
I0
aI0
aI0
aI0
aI0
aI0
aI0
aI0
aI0
aI0
aI0
aI0
aI0
aI0
aI0
aI0
aaa(lp62
(lp63
I0
aI0
aI0
aI0
aI0
aI0
aI0
aI0
aI0
aI0
aI0
aI0
aI0
aI0
aI0
aI0
aa(lp64
I0
aI0
aI0
aI0
aI0
aI0
aI0
aI0
aI0
aI0
aI0
aI0
aI0
aI0
aI0
aI0
aa(lp65
I0
aI0
aI0
aI0
aI0
aI0
aI0
aI0
aI0
aI0
aI0
aI0
aI0
aI0
aI0
aI0
aa(lp66
I0
aI0
aI0
aI0
aI0
aI0
aI0
aI0
aI0
aI0
aI0
aI0
aI0
aI0
aI0
aI0
aa(lp67
I0
aI0
aI0
aI0
aI0
aI0
aI0
aI1
aI1
aI0
aI0
aI0
aI0
aI0
aI0
aI0
aa(lp68
I0
aI0
aI0
aI0
aI0
aI1
aI1
aI2
aI3
aI1
aI1
aI0
aI0
aI0
aI0
aI0
aa(lp69
I0
aI0
aI0
aI0
aI0
aI1
aI2
aI2
aI3
aI2
aI1
aI0
aI0
aI0
aI0
aI0
aa(lp70
I0
aI0
aI0
aI0
aI1
aI3
aI3
aI2
aI2
aI2
aI2
aI1
aI0
aI0
aI0
aI0
aa(lp71
I0
aI0
aI0
aI0
aI1
aI2
aI2
aI2
aI2
aI3
aI3
aI1
aI0
aI0
aI0
aI0
aa(lp72
I0
aI0
aI0
aI0
aI0
aI1
aI2
aI3
aI2
aI2
aI1
aI0
aI0
aI0
aI0
aI0
aa(lp73
I0
aI0
aI0
aI0
aI0
aI1
aI1
aI3
aI2
aI1
aI1
aI0
aI0
aI0
aI0
aI0
aa(lp74
I0
aI0
aI0
aI0
aI0
aI0
aI0
aI1
aI1
aI0
aI0
aI0
aI0
aI0
aI0
aI0
aa(lp75
I0
aI0
aI0
aI0
aI0
aI0
aI0
aI0
aI0
aI0
aI0
aI0
aI0
aI0
aI0
aI0
aa(lp76
I0
aI0
aI0
aI0
aI0
aI0
aI0
aI0
aI0
aI0
aI0
aI0
aI0
aI0
aI0
aI0
aa(lp77
I0
aI0
aI0
aI0
aI0
aI0
aI0
aI0
aI0
aI0
aI0
aI0
aI0
aI0
aI0
aI0
aa(lp78
I0
aI0
aI0
aI0
aI0
aI0
aI0
aI0
aI0
aI0
aI0
aI0
aI0
aI0
aI0
aI0
aaa(lp79
(lp80
I0
aI0
aI0
aI0
aI0
aI0
aI0
aI0
aI0
aI0
aI0
aI0
aI0
aI0
aI0
aI0
aa(lp81
I0
aI0
aI0
aI0
aI0
aI0
aI0
aI0
aI0
aI0
aI0
aI0
aI0
aI0
aI0
aI0
aa(lp82
I0
aI0
aI0
aI0
aI0
aI0
aI0
aI0
aI0
aI0
aI0
aI0
aI0
aI0
aI0
aI0
aa(lp83
I0
aI0
aI0
aI0
aI0
aI0
aI0
aI0
aI0
aI0
aI0
aI0
aI0
aI0
aI0
aI0
aa(lp84
I0
aI0
aI0
aI0
aI3
aI3
aI3
aI0
aI0
aI3
aI3
aI3
aI0
aI0
aI0
aI0
aa(lp85
I0
aI0
aI0
aI0
aI3
aI2
aI2
aI3
aI3
aI2
aI2
aI3
aI0
aI0
aI0
aI0
aa(lp86
I0
aI0
aI0
aI0
aI3
aI2
aI3
aI1
aI1
aI3
aI2
aI3
aI0
aI0
aI0
aI0
aa(lp87
I0
aI0
aI0
aI0
aI0
aI3
aI1
aI1
aI1
aI1
aI3
aI0
aI0
aI0
aI0
aI0
aa(lp88
I0
aI0
aI0
aI0
aI0
aI3
aI1
aI1
aI1
aI1
aI3
aI0
aI0
aI0
aI0
aI0
aa(lp89
I0
aI0
aI0
aI0
aI3
aI2
aI3
aI1
aI1
aI3
aI2
aI3
aI0
aI0
aI0
aI0
aa(lp90
I0
aI0
aI0
aI0
aI3
aI2
aI2
aI3
aI3
aI2
aI2
aI3
aI0
aI0
aI0
aI0
aa(lp91
I0
aI0
aI0
aI0
aI3
aI3
aI3
aI0
aI0
aI3
aI3
aI3
aI0
aI0
aI0
aI0
aa(lp92
I0
aI0
aI0
aI0
aI0
aI0
aI0
aI0
aI0
aI0
aI0
aI0
aI0
aI0
aI0
aI0
aa(lp93
I0
aI0
aI0
aI0
aI0
aI0
aI0
aI0
aI0
aI0
aI0
aI0
aI0
aI0
aI0
aI0
aa(lp94
I0
aI0
aI0
aI0
aI0
aI0
aI0
aI0
aI0
aI0
aI0
aI0
aI0
aI0
aI0
aI0
aa(lp95
I0
aI0
aI0
aI0
aI0
aI0
aI0
aI0
aI0
aI0
aI0
aI0
aI0
aI0
aI0
aI0
aaa(lp96
(lp97
I0
aI0
aI0
aI0
aI0
aI0
aI0
aI0
aI0
aI0
aI0
aI0
aI0
aI0
aI0
aI0
aa(lp98
I0
aI0
aI0
aI0
aI0
aI0
aI0
aI0
aI0
aI0
aI0
aI0
aI0
aI0
aI0
aI0
aa(lp99
I0
aI0
aI0
aI0
aI0
aI0
aI0
aI0
aI0
aI0
aI0
aI0
aI0
aI0
aI0
aI0
aa(lp100
I0
aI0
aI0
aI1
aI1
aI1
aI1
aI1
aI1
aI1
aI1
aI1
aI1
aI0
aI0
aI0
aa(lp101
I0
aI0
aI0
aI1
aI0
aI0
aI0
aI0
aI0
aI0
aI0
aI0
aI1
aI0
aI0
aI0
aa(lp102
I0
aI0
aI0
aI1
aI0
aI0
aI0
aI0
aI0
aI0
aI0
aI0
aI1
aI0
aI0
aI0
aa(lp103
I0
aI0
aI0
aI1
aI0
aI0
aI0
aI0
aI0
aI0
aI0
aI0
aI1
aI0
aI0
aI0
aa(lp104
I0
aI0
aI0
aI1
aI0
aI0
aI0
aI0
aI0
aI0
aI0
aI0
aI1
aI0
aI0
aI0
aa(lp105
I0
aI0
aI0
aI1
aI0
aI0
aI0
aI0
aI0
aI0
aI0
aI0
aI1
aI0
aI0
aI0
aa(lp106
I0
aI0
aI0
aI1
aI0
aI0
aI0
aI0
aI0
aI0
aI0
aI0
aI1
aI0
aI0
aI0
aa(lp107
I0
aI0
aI0
aI1
aI0
aI0
aI0
aI0
aI0
aI0
aI0
aI0
aI1
aI0
aI0
aI0
aa(lp108
I0
aI0
aI0
aI1
aI1
aI1
aI1
aI1
aI1
aI1
aI1
aI1
aI1
aI0
aI0
aI0
aa(lp109
I0
aI0
aI0
aI0
aI0
aI0
aI0
aI0
aI0
aI0
aI0
aI0
aI0
aI0
aI0
aI0
aa(lp110
I0
aI0
aI0
aI0
aI0
aI0
aI0
aI0
aI0
aI0
aI0
aI0
aI0
aI0
aI0
aI0
aa(lp111
I0
aI0
aI0
aI0
aI0
aI0
aI0
aI0
aI0
aI0
aI0
aI0
aI0
aI0
aI0
aI0
aa(lp112
I0
aI0
aI0
aI0
aI0
aI0
aI0
aI0
aI0
aI0
aI0
aI0
aI0
aI0
aI0
aI0
aaa(lp113
(lp114
I0
aI0
aI0
aI0
aI0
aI0
aI0
aI0
aI0
aI0
aI0
aI0
aI0
aI0
aI0
aI0
aa(lp115
I0
aI0
aI0
aI0
aI0
aI0
aI0
aI0
aI0
aI0
aI0
aI0
aI0
aI0
aI0
aI0
aa(lp116
I0
aI0
aI0
aI0
aI0
aI0
aI0
aI0
aI0
aI0
aI0
aI0
aI0
aI0
aI0
aI0
aa(lp117
I0
aI0
aI0
aI0
aI0
aI0
aI0
aI0
aI0
aI0
aI0
aI0
aI0
aI0
aI0
aI0
aa(lp118
I0
aI0
aI0
aI0
aI0
aI0
aI0
aI0
aI0
aI0
aI0
aI0
aI0
aI0
aI0
aI0
aa(lp119
I0
aI0
aI0
aI0
aI0
aI0
aI0
aI3
aI3
aI3
aI0
aI2
aI2
aI0
aI0
aI0
aa(lp120
I0
aI0
aI0
aI0
aI0
aI0
aI0
aI3
aI1
aI3
aI2
aI2
aI0
aI0
aI0
aI0
aa(lp121
I0
aI0
aI0
aI0
aI0
aI1
aI1
aI1
aI1
aI1
aI1
aI0
aI3
aI0
aI0
aI0
aa(lp122
I0
aI0
aI0
aI0
aI0
aI1
aI1
aI2
aI2
aI2
aI1
aI1
aI3
aI0
aI0
aI0
aa(lp123
I0
aI0
aI0
aI0
aI0
aI1
aI2
aI2
aI2
aI1
aI1
aI0
aI3
aI0
aI0
aI0
aa(lp124
I0
aI0
aI0
aI0
aI0
aI2
aI2
aI0
aI0
aI0
aI0
aI0
aI0
aI0
aI0
aI0
aa(lp125
I0
aI0
aI0
aI0
aI0
aI0
aI0
aI0
aI0
aI0
aI0
aI0
aI0
aI0
aI0
aI0
aa(lp126
I0
aI0
aI0
aI0
aI0
aI0
aI0
aI0
aI0
aI0
aI0
aI0
aI0
aI0
aI0
aI0
aa(lp127
I0
aI0
aI0
aI0
aI0
aI0
aI0
aI0
aI0
aI0
aI0
aI0
aI0
aI0
aI0
aI0
aa(lp128
I0
aI0
aI0
aI0
aI0
aI0
aI0
aI0
aI0
aI0
aI0
aI0
aI0
aI0
aI0
aI0
aa(lp129
I0
aI0
aI0
aI0
aI0
aI0
aI0
aI0
aI0
aI0
aI0
aI0
aI0
aI0
aI0
aI0
aaa(lp130
(lp131
I0
aI0
aI0
aI0
aI0
aI0
aI0
aI0
aI0
aI0
aI0
aI0
aI0
aI0
aI0
aI0
aa(lp132
I0
aI0
aI0
aI0
aI0
aI0
aI0
aI0
aI0
aI0
aI0
aI0
aI0
aI0
aI0
aI0
aa(lp133
I0
aI0
aI0
aI0
aI0
aI0
aI0
aI0
aI0
aI0
aI0
aI0
aI0
aI0
aI0
aI0
aa(lp134
I0
aI0
aI0
aI1
aI1
aI1
aI1
aI1
aI1
aI1
aI1
aI1
aI1
aI0
aI0
aI0
aa(lp135
I0
aI0
aI0
aI1
aI0
aI0
aI0
aI0
aI0
aI0
aI0
aI0
aI1
aI0
aI0
aI0
aa(lp136
I0
aI0
aI0
aI1
aI0
aI0
aI0
aI0
aI0
aI0
aI0
aI0
aI1
aI0
aI0
aI0
aa(lp137
I0
aI0
aI0
aI1
aI0
aI0
aI0
aI0
aI0
aI0
aI0
aI0
aI1
aI0
aI0
aI0
aa(lp138
I0
aI0
aI0
aI1
aI0
aI0
aI0
aI0
aI0
aI0
aI0
aI0
aI1
aI0
aI0
aI0
aa(lp139
I0
aI0
aI0
aI1
aI0
aI0
aI0
aI0
aI0
aI0
aI0
aI0
aI1
aI0
aI0
aI0
aa(lp140
I0
aI0
aI0
aI1
aI0
aI0
aI0
aI0
aI0
aI0
aI0
aI0
aI1
aI0
aI0
aI0
aa(lp141
I0
aI0
aI0
aI1
aI0
aI0
aI0
aI0
aI0
aI0
aI0
aI0
aI1
aI0
aI0
aI0
aa(lp142
I0
aI0
aI0
aI1
aI1
aI1
aI1
aI1
aI1
aI1
aI1
aI1
aI1
aI0
aI0
aI0
aa(lp143
I0
aI0
aI0
aI0
aI0
aI0
aI0
aI0
aI0
aI0
aI0
aI0
aI0
aI0
aI0
aI0
aa(lp144
I0
aI0
aI0
aI0
aI0
aI0
aI0
aI0
aI0
aI0
aI0
aI0
aI0
aI0
aI0
aI0
aa(lp145
I0
aI0
aI0
aI0
aI0
aI0
aI0
aI0
aI0
aI0
aI0
aI0
aI0
aI0
aI0
aI0
aa(lp146
I0
aI0
aI0
aI0
aI0
aI0
aI0
aI0
aI0
aI0
aI0
aI0
aI0
aI0
aI0
aI0
aaaa(lp147
(lp148
(lp149
I0
aI0
aI0
aI0
aI0
aI0
aI0
aI0
aI0
aI0
aI0
aI0
aI1
aI2
aI1
aI2
aa(lp150
I0
aI0
aI0
aI0
aI0
aI0
aI0
aI0
aI0
aI0
aI1
aI2
aI3
aI3
aI2
aI1
aa(lp151
I0
aI0
aI0
aI0
aI0
aI0
aI0
aI0
aI1
aI2
aI3
aI1
aI1
aI1
aI3
aI2
aa(lp152
I0
aI0
aI0
aI0
aI0
aI0
aI0
aI0
aI2
aI3
aI1
aI3
aI3
aI1
aI3
aI1
aa(lp153
I0
aI0
aI0
aI0
aI0
aI0
aI0
aI0
aI0
aI1
aI2
aI1
aI2
aI3
aI2
aI0
aa(lp154
I0
aI0
aI0
aI0
aI0
aI0
aI0
aI0
aI0
aI0
aI2
aI3
aI1
aI1
aI1
aI0
aa(lp155
I0
aI0
aI0
aI0
aI0
aI0
aI0
aI0
aI0
aI0
aI0
aI1
aI3
aI2
aI0
aI0
aa(lp156
I0
aI0
aI0
aI0
aI0
aI0
aI0
aI0
aI0
aI0
aI0
aI0
aI2
aI1
aI0
aI0
aa(lp157
I0
aI0
aI0
aI0
aI0
aI0
aI0
aI0
aI0
aI0
aI0
aI0
aI0
aI0
aI0
aI0
aa(lp158
I0
aI0
aI0
aI0
aI0
aI0
aI0
aI0
aI0
aI0
aI0
aI0
aI0
aI0
aI0
aI0
aa(lp159
I0
aI0
aI0
aI0
aI0
aI0
aI0
aI0
aI0
aI0
aI0
aI0
aI0
aI0
aI0
aI0
aa(lp160
I0
aI0
aI0
aI0
aI0
aI0
aI0
aI0
aI0
aI0
aI0
aI0
aI0
aI0
aI0
aI0
aa(lp161
I0
aI0
aI0
aI0
aI0
aI0
aI0
aI0
aI0
aI0
aI0
aI0
aI0
aI0
aI0
aI0
aa(lp162
I0
aI0
aI0
aI0
aI0
aI0
aI0
aI0
aI0
aI0
aI0
aI0
aI0
aI0
aI0
aI0
aa(lp163
I0
aI0
aI0
aI0
aI0
aI0
aI0
aI0
aI0
aI0
aI0
aI0
aI0
aI0
aI0
aI0
aa(lp164
I0
aI0
aI0
aI0
aI0
aI0
aI0
aI0
aI0
aI0
aI0
aI0
aI0
aI0
aI0
aI0
aaag62
a(lp165
(lp166
I0
aI0
aI0
aI0
aI0
aI0
aI0
aI0
aI0
aI0
aI0
aI0
aI0
aI0
aI0
aI0
aa(lp167
I0
aI0
aI0
aI0
aI0
aI0
aI0
aI0
aI0
aI0
aI0
aI0
aI0
aI0
aI0
aI0
aa(lp168
I0
aI0
aI0
aI0
aI0
aI0
aI0
aI0
aI0
aI0
aI0
aI0
aI0
aI0
aI0
aI0
aa(lp169
I0
aI0
aI0
aI0
aI0
aI0
aI0
aI0
aI0
aI0
aI0
aI0
aI0
aI0
aI0
aI0
aa(lp170
I0
aI0
aI0
aI0
aI0
aI1
aI1
aI1
aI1
aI1
aI1
aI0
aI0
aI0
aI0
aI0
aa(lp171
I0
aI0
aI0
aI0
aI1
aI1
aI1
aI1
aI1
aI0
aI1
aI1
aI0
aI0
aI0
aI0
aa(lp172
I0
aI0
aI0
aI0
aI1
aI1
aI0
aI1
aI1
aI0
aI1
aI1
aI0
aI0
aI0
aI0
aa(lp173
I0
aI0
aI0
aI0
aI1
aI1
aI1
aI1
aI1
aI1
aI1
aI1
aI0
aI0
aI0
aI0
aa(lp174
I0
aI0
aI0
aI0
aI1
aI1
aI1
aI1
aI1
aI1
aI1
aI1
aI0
aI0
aI0
aI0
aa(lp175
I0
aI0
aI0
aI0
aI1
aI1
aI1
aI1
aI1
aI1
aI1
aI1
aI0
aI0
aI0
aI0
aa(lp176
I0
aI0
aI0
aI0
aI0
aI1
aI1
aI1
aI1
aI1
aI1
aI0
aI0
aI0
aI0
aI0
aa(lp177
I0
aI0
aI0
aI0
aI0
aI0
aI1
aI0
aI0
aI1
aI0
aI0
aI0
aI0
aI0
aI0
aa(lp178
I0
aI0
aI0
aI0
aI0
aI0
aI0
aI0
aI0
aI0
aI0
aI0
aI0
aI0
aI0
aI0
aa(lp179
I0
aI0
aI0
aI0
aI0
aI0
aI0
aI0
aI0
aI0
aI0
aI0
aI0
aI0
aI0
aI0
aa(lp180
I0
aI0
aI0
aI0
aI0
aI0
aI0
aI0
aI0
aI0
aI0
aI0
aI0
aI0
aI0
aI0
aa(lp181
I0
aI0
aI0
aI0
aI0
aI0
aI0
aI0
aI0
aI0
aI0
aI0
aI0
aI0
aI0
aI0
aaag96
a(lp182
(lp183
I0
aI0
aI0
aI0
aI0
aI0
aI0
aI0
aI0
aI0
aI0
aI0
aI0
aI0
aI0
aI0
aa(lp184
I0
aI0
aI0
aI0
aI0
aI0
aI0
aI0
aI0
aI0
aI0
aI0
aI0
aI0
aI0
aI0
aa(lp185
I0
aI0
aI0
aI0
aI0
aI0
aI0
aI0
aI0
aI0
aI0
aI0
aI0
aI0
aI0
aI0
aa(lp186
I0
aI0
aI0
aI0
aI0
aI0
aI0
aI0
aI0
aI0
aI0
aI0
aI0
aI0
aI0
aI0
aa(lp187
I0
aI0
aI0
aI0
aI0
aI0
aI0
aI0
aI0
aI0
aI0
aI0
aI0
aI0
aI0
aI0
aa(lp188
I0
aI0
aI0
aI0
aI0
aI0
aI1
aI1
aI1
aI1
aI0
aI0
aI0
aI0
aI0
aI0
aa(lp189
I0
aI2
aI0
aI0
aI0
aI3
aI1
aI2
aI2
aI1
aI3
aI0
aI0
aI0
aI0
aI0
aa(lp190
I0
aI2
aI2
aI0
aI1
aI3
aI1
aI2
aI2
aI1
aI3
aI1
aI1
aI0
aI0
aI0
aa(lp191
I0
aI2
aI2
aI2
aI1
aI3
aI1
aI1
aI1
aI1
aI3
aI1
aI1
aI1
aI0
aI0
aa(lp192
I0
aI2
aI2
aI1
aI1
aI3
aI3
aI3
aI3
aI3
aI3
aI1
aI1
aI0
aI0
aI0
aa(lp193
I0
aI2
aI0
aI0
aI0
aI1
aI1
aI1
aI1
aI1
aI1
aI0
aI0
aI0
aI0
aI0
aa(lp194
I0
aI0
aI0
aI0
aI0
aI0
aI0
aI0
aI0
aI0
aI0
aI0
aI0
aI0
aI0
aI0
aa(lp195
I0
aI0
aI0
aI0
aI0
aI0
aI0
aI0
aI0
aI0
aI0
aI0
aI0
aI0
aI0
aI0
aa(lp196
I0
aI0
aI0
aI0
aI0
aI0
aI0
aI0
aI0
aI0
aI0
aI0
aI0
aI0
aI0
aI0
aa(lp197
I0
aI0
aI0
aI0
aI0
aI0
aI0
aI0
aI0
aI0
aI0
aI0
aI0
aI0
aI0
aI0
aa(lp198
I0
aI0
aI0
aI0
aI0
aI0
aI0
aI0
aI0
aI0
aI0
aI0
aI0
aI0
aI0
aI0
aaag130
aa(lp199
g148
ag62
ag165
ag96
ag182
ag130
aa(lp200
g148
ag62
ag165
ag96
ag182
ag130
aa(lp201
g148
ag62
ag165
ag96
ag182
ag130
aa(lp202
g148
ag62
ag165
ag96
ag182
ag130
aa(lp203
g148
ag62
ag165
ag96
ag182
ag130
aa(lp204
g148
ag62
ag165
ag96
ag182
ag130
aa(lp205
g148
ag62
ag165
ag96
ag182
ag130
aa(lp206
g148
ag62
ag165
ag96
ag182
ag130
aaa(lp207
(lp208
I2
aI0
aI5
aI0
aI3
aI0
aa(lp209
I3
aI1
aI5
aI0
aI3
aI0
aa(lp210
I0
aI0
aI0
aI0
aI0
aI0
aa(lp211
I0
aI0
aI0
aI0
aI0
aI0
aa(lp212
I0
aI0
aI0
aI0
aI0
aI0
aa(lp213
I0
aI0
aI0
aI0
aI0
aI0
aa(lp214
I0
aI0
aI0
aI0
aI0
aI0
aa(lp215
I0
aI0
aI0
aI0
aI0
aI0
aa(lp216
I0
aI0
aI0
aI0
aI0
aI0
aa(lp217
I0
aI0
aI0
aI0
aI0
aI0
aaaa(lp218
(lp219
I97
aI100
aI119
aa(lp220
I1073741904
aI1073741903
aI1073741906
aa(lp221
I0
aI0
aI0
aa(lp222
I0
aI0
aI0
aa(lp223
I0
aI0
aI0
aa(lp224
I0
aI0
aI0
aa(lp225
I0
aI0
aI0
aa(lp226
I0
aI0
aI0
aa(lp227
I0
aI0
aI0
aa(lp228
I0
aI0
aI0
aaa(lp229
(lp230
S'volume'
p231
aS'analog'
p232
aI100
aI100
aa(lp233
S'player #'
p234
ag232
aI2
aI10
aa(lp235
S'FG-Effects'
p236
aS'I/O'
p237
aS'On'
p238
aa(lp239
S'BG-Effects'
p240
ag237
ag238
aa(lp241
S'Shake'
p242
ag237
ag238
aaa.